target datalayout = "e-m:e-p270:32:32-p271:32:32-p272:64:64-i64:64-i128:128-f80:128-n8:16:32:64-S128"
target triple = "x86_64-pc-linux-gnu"

%struct.SDL_RenderViewState = type { i32, i32, %struct.SDL_Rect, %struct.SDL_Rect, %struct.SDL_Rect, %struct.SDL_Rect, i8, %struct.SDL_FPoint, i32, i32, i32, %struct.SDL_FRect, %struct.SDL_FRect, %struct.SDL_FPoint, %struct.SDL_FPoint, %struct.SDL_FPoint }
%struct.SDL_FRect = type { float, float, float, float }
%struct.SDL_FPoint = type { float, float }
%struct.SDL_FColor = type { float, float, float, float }
%struct.SDL_Rect = type { i32, i32, i32, i32 }
%struct.SDL_Texture = type { i32, i32, i32, i32, i32, float, float, i32, i32, i32, %struct.SDL_FColor, %struct.SDL_RenderViewState, ptr, ptr, ptr, ptr, i32, %struct.SDL_Rect, ptr, i32, i32, ptr, ptr, ptr }
%struct.GLES2_TextureData = type { i32, i8, i32, i32, i32, ptr, i32, i8, i8, i32, i32, i32, i32, [4 x float], i32, i32, i32, ptr }

; Function Attrs: nounwind uwtable
define internal zeroext i1 @GLES2_LockTexture(ptr noundef %0, ptr noundef %1, ptr noundef %2, ptr noundef %3, ptr noundef %4) #0 {
  %6 = alloca ptr, align 8
  %7 = alloca ptr, align 8
  %8 = alloca ptr, align 8
  %9 = alloca ptr, align 8
  %10 = alloca ptr, align 8
  %11 = alloca ptr, align 8
  store ptr %0, ptr %6, align 8
  store ptr %1, ptr %7, align 8
  store ptr %2, ptr %8, align 8
  store ptr %3, ptr %9, align 8
  store ptr %4, ptr %10, align 8
  call void @llvm.lifetime.start.p0(i64 8, ptr %11) #6
  %12 = load ptr, ptr %7, align 8
  %13 = getelementptr inbounds nuw %struct.SDL_Texture, ptr %12, i32 0, i32 21
  %14 = load ptr, ptr %13, align 8
  store ptr %14, ptr %11, align 8
  %15 = load ptr, ptr %11, align 8
  %16 = getelementptr inbounds nuw %struct.GLES2_TextureData, ptr %15, i32 0, i32 5
  %17 = load ptr, ptr %16, align 8
  %18 = load ptr, ptr %11, align 8
  %19 = getelementptr inbounds nuw %struct.GLES2_TextureData, ptr %18, i32 0, i32 6
  %20 = load i32, ptr %19, align 8
  %21 = load ptr, ptr %8, align 8
  %22 = getelementptr inbounds nuw %struct.SDL_Rect, ptr %21, i32 0, i32 1
  %23 = load i32, ptr %22, align 4
  %24 = mul nsw i32 %20, %23
  %25 = sext i32 %24 to i64
  %26 = getelementptr inbounds i8, ptr %17, i64 %25
  %27 = load ptr, ptr %8, align 8
  %28 = getelementptr inbounds nuw %struct.SDL_Rect, ptr %27, i32 0, i32 0
  %29 = load i32, ptr %28, align 4
  %30 = load ptr, ptr %7, align 8
  %31 = getelementptr inbounds nuw %struct.SDL_Texture, ptr %30, i32 0, i32 0
  %32 = load i32, ptr %31, align 8
  %33 = icmp ne i32 %32, 0
  br i1 %33, label %34, label %64

34:                                               ; preds = %5
  %35 = load ptr, ptr %7, align 8
  %36 = getelementptr inbounds nuw %struct.SDL_Texture, ptr %35, i32 0, i32 0
  %37 = load i32, ptr %36, align 8
  %38 = lshr i32 %37, 28
  %39 = and i32 %38, 15
  %40 = icmp ne i32 %39, 1
  br i1 %40, label %41, label %64

41:                                               ; preds = %34
  %42 = load ptr, ptr %7, align 8
  %43 = getelementptr inbounds nuw %struct.SDL_Texture, ptr %42, i32 0, i32 0
  %44 = load i32, ptr %43, align 8
  %45 = icmp eq i32 %44, 844715353
  br i1 %45, label %61, label %46

46:                                               ; preds = %41
  %47 = load ptr, ptr %7, align 8
  %48 = getelementptr inbounds nuw %struct.SDL_Texture, ptr %47, i32 0, i32 0
  %49 = load i32, ptr %48, align 8
  %50 = icmp eq i32 %49, 1498831189
  br i1 %50, label %61, label %51

51:                                               ; preds = %46
  %52 = load ptr, ptr %7, align 8
  %53 = getelementptr inbounds nuw %struct.SDL_Texture, ptr %52, i32 0, i32 0
  %54 = load i32, ptr %53, align 8
  %55 = icmp eq i32 %54, 1431918169
  br i1 %55, label %61, label %56

56:                                               ; preds = %51
  %57 = load ptr, ptr %7, align 8
  %58 = getelementptr inbounds nuw %struct.SDL_Texture, ptr %57, i32 0, i32 0
  %59 = load i32, ptr %58, align 8
  %60 = icmp eq i32 %59, 808530000
  br label %61

61:                                               ; preds = %56, %51, %46, %41
  %62 = phi i1 [ true, %51 ], [ true, %46 ], [ true, %41 ], [ %60, %56 ]
  %63 = select i1 %62, i32 2, i32 1
  br label %70

64:                                               ; preds = %34, %5
  %65 = load ptr, ptr %7, align 8
  %66 = getelementptr inbounds nuw %struct.SDL_Texture, ptr %65, i32 0, i32 0
  %67 = load i32, ptr %66, align 8
  %68 = lshr i32 %67, 0
  %69 = and i32 %68, 255
  br label %70

70:                                               ; preds = %64, %61
  %71 = phi i32 [ %63, %61 ], [ %69, %64 ]
  %72 = mul i32 %29, %71
  %73 = zext i32 %72 to i64
  %74 = getelementptr inbounds nuw i8, ptr %26, i64 %73
  %75 = load ptr, ptr %9, align 8
  store ptr %74, ptr %75, align 8
  %76 = load ptr, ptr %11, align 8
  %77 = getelementptr inbounds nuw %struct.GLES2_TextureData, ptr %76, i32 0, i32 6
  %78 = load i32, ptr %77, align 8
  %79 = load ptr, ptr %10, align 8
  store i32 %78, ptr %79, align 4
  call void @llvm.lifetime.end.p0(i64 8, ptr %11) #6
  ret i1 true
}