; Function Attrs: mustprogress nofree norecurse nosync nounwind willreturn memory(read, argmem: readwrite, inaccessiblemem: none) uwtable
define internal noundef zeroext i1 @GLES2_LockTexture(ptr readnone captures(none) %0, ptr noundef readonly captures(none) %1, ptr noundef readonly captures(none) %2, ptr noundef writeonly captures(none) initializes((0, 8)) %3, ptr noundef writeonly captures(none) initializes((0, 4)) %4) #5 {
  %6 = getelementptr inbounds nuw i8, ptr %1, i64 280
  %7 = load ptr, ptr %6, align 8
  %8 = getelementptr inbounds nuw i8, ptr %7, i64 24
  %9 = load ptr, ptr %8, align 8
  %10 = getelementptr inbounds nuw i8, ptr %7, i64 32
  %11 = load i32, ptr %10, align 8
  %12 = getelementptr inbounds nuw i8, ptr %2, i64 4
  %13 = load i32, ptr %12, align 4
  %14 = load i32, ptr %2, align 4
  %15 = load i32, ptr %1, align 8
  %.not = icmp eq i32 %15, 0
  %.mask = and i32 %15, -268435456
  %.not15 = icmp eq i32 %.mask, 268435456
  %or.cond = or i1 %.not, %.not15
  br i1 %or.cond, label %20, label %16

16:                                               ; preds = %5
  switch i32 %15, label %17 [
    i32 844715353, label %22
    i32 1498831189, label %22
    i32 1431918169, label %22
  ]

17:                                               ; preds = %16
  %18 = icmp eq i32 %15, 808530000
  %19 = select i1 %18, i32 2, i32 1
  br label %22

20:                                               ; preds = %5
  %21 = and i32 %15, 255
  br label %22

22:                                               ; preds = %17, %16, %16, %16, %20
  %23 = phi i32 [ %21, %20 ], [ 2, %16 ], [ %19, %17 ], [ 2, %16 ], [ 2, %16 ]
  %24 = mul nsw i32 %13, %11
  %25 = sext i32 %24 to i64
  %26 = getelementptr inbounds i8, ptr %9, i64 %25
  %27 = mul i32 %23, %14
  %28 = zext i32 %27 to i64
  %29 = getelementptr inbounds nuw i8, ptr %26, i64 %28
  store ptr %29, ptr %3, align 8
  %30 = load i32, ptr %10, align 8
  store i32 %30, ptr %4, align 4
  ret i1 true
}